target datalayout = "e-m:e-p270:32:32-p271:32:32-p272:64:64-i64:64-i128:128-f80:128-n8:16:32:64-S128"
target triple = "x86_64-pc-linux-gnu"

%"class.std::ios_base::Init" = type { i8 }

@_ZStL8__ioinit = internal global %"class.std::ios_base::Init" zeroinitializer, align 1
@__dso_handle = external hidden global i8
@_ZN3dpx15systemByteOrderE = hidden global i32 0, align 4
@_ZL8dpx_lPtr = internal global ptr @_ZL10dpx_lValue, align 8
@_ZL10dpx_lValue = internal global i64 305419896, align 8
@llvm.global_ctors = appending global [1 x { i32, ptr, ptr }] [{ i32, ptr, ptr } { i32 65535, ptr @_GLOBAL__sub_I_DPX.cpp, ptr null }]

; Function Attrs: uwtable
define internal void @__cxx_global_var_init() #0 section ".text.startup" {
  call void @_ZNSt8ios_base4InitC1Ev(ptr noundef nonnull align 1 dereferenceable(1) @_ZStL8__ioinit)
  %1 = call i32 @__cxa_atexit(ptr @_ZNSt8ios_base4InitD1Ev, ptr @_ZStL8__ioinit, ptr @__dso_handle) #3
  ret void
}

declare void @_ZNSt8ios_base4InitC1Ev(ptr noundef nonnull align 1 dereferenceable(1)) unnamed_addr #1

; Function Attrs: nounwind
declare void @_ZNSt8ios_base4InitD1Ev(ptr noundef nonnull align 1 dereferenceable(1)) unnamed_addr #2

; Function Attrs: nounwind
declare i32 @__cxa_atexit(ptr, ptr, ptr) #3

; Function Attrs: uwtable
define internal void @__cxx_global_var_init.1() #0 section ".text.startup" {
  %1 = load ptr, ptr @_ZL8dpx_lPtr, align 8, !tbaa !3
  %2 = load i8, ptr %1, align 1, !tbaa !8
  %3 = zext i8 %2 to i32
  %4 = icmp eq i32 %3, 120
  %5 = select i1 %4, i32 0, i32 1
  store i32 %5, ptr @_ZN3dpx15systemByteOrderE, align 4, !tbaa !9
  ret void
}

; Function Attrs: mustprogress uwtable
define hidden noundef zeroext i1 @_ZN3dpx12IdentifyFileEP8InStream(ptr noundef %0) #4 {
  %2 = alloca i1, align 1
  %3 = alloca ptr, align 8
  %4 = alloca i32, align 4
  %5 = alloca i32, align 4
  store ptr %0, ptr %3, align 8, !tbaa !11
  call void @llvm.lifetime.start.p0(i64 4, ptr %4) #3
  %6 = load ptr, ptr %3, align 8, !tbaa !11
  %7 = load ptr, ptr %6, align 8, !tbaa !13
  %8 = getelementptr inbounds ptr, ptr %7, i64 2
  %9 = load ptr, ptr %8, align 8
  call void %9(ptr noundef nonnull align 8 dereferenceable(16) %6)
  %10 = load ptr, ptr %3, align 8, !tbaa !11
  %11 = load ptr, ptr %10, align 8, !tbaa !13
  %12 = getelementptr inbounds ptr, ptr %11, i64 3
  %13 = load ptr, ptr %12, align 8
  %14 = call noundef i64 %13(ptr noundef nonnull align 8 dereferenceable(16) %10, ptr noundef %4, i64 noundef 4)
  %15 = icmp ne i64 %14, 4
  br i1 %15, label %16, label %17

16:                                               ; preds = %1
  store i1 false, ptr %2, align 1
  store i32 1, ptr %5, align 4
  br label %20

17:                                               ; preds = %1
  %18 = load i32, ptr %4, align 4, !tbaa !15
  %19 = call noundef zeroext i1 @_ZN3dpx6Header16ValidMagicCookieEj(i32 noundef %18)
  store i1 %19, ptr %2, align 1
  store i32 1, ptr %5, align 4
  br label %20

20:                                               ; preds = %17, %16
  call void @llvm.lifetime.end.p0(i64 4, ptr %4) #3
  %21 = load i1, ptr %2, align 1
  ret i1 %21
}

; Function Attrs: nocallback nofree nosync nounwind willreturn memory(argmem: readwrite)
declare void @llvm.lifetime.start.p0(i64 immarg, ptr captures(none)) #5

declare noundef zeroext i1 @_ZN3dpx6Header16ValidMagicCookieEj(i32 noundef) #1

; Function Attrs: nocallback nofree nosync nounwind willreturn memory(argmem: readwrite)
declare void @llvm.lifetime.end.p0(i64 immarg, ptr captures(none)) #5

; Function Attrs: mustprogress uwtable
define hidden noundef zeroext i1 @_ZN3dpx12IdentifyFileEPKv(ptr noundef %0) #4 {
  %2 = alloca ptr, align 8
  %3 = alloca i32, align 4
  store ptr %0, ptr %2, align 8, !tbaa !17
  call void @llvm.lifetime.start.p0(i64 4, ptr %3) #3
  %4 = load ptr, ptr %2, align 8, !tbaa !17
  %5 = load i32, ptr %4, align 4, !tbaa !15
  store i32 %5, ptr %3, align 4, !tbaa !15
  %6 = load i32, ptr %3, align 4, !tbaa !15
  %7 = call noundef zeroext i1 @_ZN3dpx6Header16ValidMagicCookieEj(i32 noundef %6)
  call void @llvm.lifetime.end.p0(i64 4, ptr %3) #3
  ret i1 %7
}

; Function Attrs: uwtable
define internal void @_GLOBAL__sub_I_DPX.cpp() #0 section ".text.startup" {
  call void @__cxx_global_var_init()
  call void @__cxx_global_var_init.1()
  ret void
}


!llvm.module.flags = !{!0, !1, !2}

!0 = !{i32 1, !"wchar_size", i32 4}
!1 = !{i32 8, !"PIC Level", i32 2}
!2 = !{i32 7, !"uwtable", i32 2}
!3 = !{!4, !4, i64 0}
!4 = !{!"p1 long", !5, i64 0}
!5 = !{!"any pointer", !6, i64 0}
!6 = !{!"omnipotent char", !7, i64 0}
!7 = !{!"Simple C++ TBAA"}
!8 = !{!6, !6, i64 0}
!9 = !{!10, !10, i64 0}
!10 = !{!"_ZTSN3dpx6EndianE", !6, i64 0}
!11 = !{!12, !12, i64 0}
!12 = !{!"p1 _ZTS8InStream", !5, i64 0}
!13 = !{!14, !14, i64 0}
!14 = !{!"vtable pointer", !7, i64 0}
!15 = !{!16, !16, i64 0}
!16 = !{!"int", !6, i64 0}
!17 = !{!5, !5, i64 0}
