; ModuleID = 'bench/oiio/original/DPX.ll'
source_filename = "bench/oiio/original/DPX.ll"
target datalayout = "e-m:e-p270:32:32-p271:32:32-p272:64:64-i64:64-i128:128-f80:128-n8:16:32:64-S128"
target triple = "x86_64-pc-linux-gnu"

%"class.std::ios_base::Init" = type { i8 }

@_ZStL8__ioinit = internal global %"class.std::ios_base::Init" zeroinitializer, align 1
@__dso_handle = external hidden global i8
@_ZN3dpx15systemByteOrderE = hidden local_unnamed_addr global i32 0, align 4
@llvm.global_ctors = appending global [1 x { i32, ptr, ptr }] [{ i32, ptr, ptr } { i32 65535, ptr @_GLOBAL__sub_I_DPX.cpp, ptr null }]

declare void @_ZNSt8ios_base4InitC1Ev(ptr noundef nonnull align 1 dereferenceable(1)) unnamed_addr #0

; Function Attrs: nounwind
declare void @_ZNSt8ios_base4InitD1Ev(ptr noundef nonnull align 1 dereferenceable(1)) unnamed_addr #1

; Function Attrs: nofree nounwind
declare i32 @__cxa_atexit(ptr, ptr, ptr) local_unnamed_addr #2

; Function Attrs: mustprogress uwtable
define hidden noundef zeroext i1 @_ZN3dpx12IdentifyFileEP8InStream(ptr noundef %0) local_unnamed_addr #3 {
  %2 = alloca i32, align 4
  call void @llvm.lifetime.start.p0(i64 4, ptr nonnull %2) #6
  %3 = load ptr, ptr %0, align 8, !tbaa !3
  %4 = getelementptr inbounds nuw i8, ptr %3, i64 16
  %5 = load ptr, ptr %4, align 8
  tail call void %5(ptr noundef nonnull align 8 dereferenceable(16) %0)
  %6 = load ptr, ptr %0, align 8, !tbaa !3
  %7 = getelementptr inbounds nuw i8, ptr %6, i64 24
  %8 = load ptr, ptr %7, align 8
  %9 = call noundef i64 %8(ptr noundef nonnull align 8 dereferenceable(16) %0, ptr noundef nonnull %2, i64 noundef 4)
  %.not = icmp eq i64 %9, 4
  br i1 %.not, label %10, label %13

10:                                               ; preds = %1
  %11 = load i32, ptr %2, align 4, !tbaa !6
  %12 = call noundef zeroext i1 @_ZN3dpx6Header16ValidMagicCookieEj(i32 noundef %11)
  br label %13

13:                                               ; preds = %1, %10
  %.0 = phi i1 [ %12, %10 ], [ false, %1 ]
  call void @llvm.lifetime.end.p0(i64 4, ptr nonnull %2) #6
  ret i1 %.0
}

; Function Attrs: mustprogress nocallback nofree nosync nounwind willreturn memory(argmem: readwrite)
declare void @llvm.lifetime.start.p0(i64 immarg, ptr captures(none)) #4

declare noundef zeroext i1 @_ZN3dpx6Header16ValidMagicCookieEj(i32 noundef) local_unnamed_addr #0

; Function Attrs: mustprogress nocallback nofree nosync nounwind willreturn memory(argmem: readwrite)
declare void @llvm.lifetime.end.p0(i64 immarg, ptr captures(none)) #4

; Function Attrs: mustprogress uwtable
define hidden noundef zeroext i1 @_ZN3dpx12IdentifyFileEPKv(ptr noundef readonly captures(none) %0) local_unnamed_addr #3 {
  %2 = load i32, ptr %0, align 4, !tbaa !6
  %3 = tail call noundef zeroext i1 @_ZN3dpx6Header16ValidMagicCookieEj(i32 noundef %2)
  ret i1 %3
}

; Function Attrs: uwtable
define internal void @_GLOBAL__sub_I_DPX.cpp() #5 section ".text.startup" {
  tail call void @_ZNSt8ios_base4InitC1Ev(ptr noundef nonnull align 1 dereferenceable(1) @_ZStL8__ioinit)
  %1 = tail call i32 @__cxa_atexit(ptr nonnull @_ZNSt8ios_base4InitD1Ev, ptr nonnull @_ZStL8__ioinit, ptr nonnull @__dso_handle) #6
  store i32 0, ptr @_ZN3dpx15systemByteOrderE, align 4, !tbaa !9
  ret void
}


!llvm.module.flags = !{!0, !1, !2}

!0 = !{i32 1, !"wchar_size", i32 4}
!1 = !{i32 8, !"PIC Level", i32 2}
!2 = !{i32 7, !"uwtable", i32 2}
!3 = !{!4, !4, i64 0}
!4 = !{!"vtable pointer", !5, i64 0}
!5 = !{!"Simple C++ TBAA"}
!6 = !{!7, !7, i64 0}
!7 = !{!"int", !8, i64 0}
!8 = !{!"omnipotent char", !5, i64 0}
!9 = !{!10, !10, i64 0}
!10 = !{!"_ZTSN3dpx6EndianE", !8, i64 0}
